#include <math.h>
#include <stdio.h>
#include <stdlib.h>
#include <string.h>
#include <iostream>
using namespace std;

int main()
{
	int w,temp,a[13]={0,31,28,31,30,31,30,31,31,30,31,30,31},i,j;
	cin>>w;
	for(i=1;i<=12;i++)
	{
		temp=0;
		for(j=1;j<i;j++)
		{
			temp+=a[j];
		}
		temp+=12;
		temp=(temp+w)%7;
		if(temp==5)
			cout<<i<<endl;
	}

	return 0;
}
