; ModuleID = 'source-C-CXX/49/2537.cpp'
source_filename = "source-C-CXX/49/2537.cpp"
target datalayout = "e-m:e-p270:32:32-p271:32:32-p272:64:64-i64:64-f80:128-n8:16:32:64-S128"
target triple = "x86_64-pc-linux-gnu"

%"class.std::ios_base::Init" = type { i8 }
%"class.std::basic_istream" = type { i32 (...)**, i64, %"class.std::basic_ios" }
%"class.std::basic_ios" = type { %"class.std::ios_base", %"class.std::basic_ostream"*, i8, i8, %"class.std::basic_streambuf"*, %"class.std::ctype"*, %"class.std::num_put"*, %"class.std::num_get"* }
%"class.std::ios_base" = type { i32 (...)**, i64, i64, i32, i32, i32, %"struct.std::ios_base::_Callback_list"*, %"struct.std::ios_base::_Words", [8 x %"struct.std::ios_base::_Words"], i32, %"struct.std::ios_base::_Words"*, %"class.std::locale" }
%"struct.std::ios_base::_Callback_list" = type { %"struct.std::ios_base::_Callback_list"*, void (i32, %"class.std::ios_base"*, i32)*, i32, i32 }
%"struct.std::ios_base::_Words" = type { i8*, i64 }
%"class.std::locale" = type { %"class.std::locale::_Impl"* }
%"class.std::locale::_Impl" = type { i32, %"class.std::locale::facet"**, i64, %"class.std::locale::facet"**, i8** }
%"class.std::locale::facet" = type <{ i32 (...)**, i32, [4 x i8] }>
%"class.std::basic_ostream" = type { i32 (...)**, %"class.std::basic_ios" }
%"class.std::basic_streambuf" = type { i32 (...)**, i8*, i8*, i8*, i8*, i8*, i8*, %"class.std::locale" }
%"class.std::ctype" = type <{ %"class.std::locale::facet.base", [4 x i8], %struct.__locale_struct*, i8, [7 x i8], i32*, i32*, i16*, i8, [256 x i8], [256 x i8], i8, [6 x i8] }>
%"class.std::locale::facet.base" = type <{ i32 (...)**, i32 }>
%struct.__locale_struct = type { [13 x %struct.__locale_data*], i16*, i32*, i32*, [13 x i8*] }
%struct.__locale_data = type opaque
%"class.std::num_put" = type { %"class.std::locale::facet.base", [4 x i8] }
%"class.std::num_get" = type { %"class.std::locale::facet.base", [4 x i8] }

@_ZStL8__ioinit = internal global %"class.std::ios_base::Init" zeroinitializer, align 1
@__dso_handle = external hidden global i8
@__const.main.a = private unnamed_addr constant [13 x i32] [i32 0, i32 31, i32 28, i32 31, i32 30, i32 31, i32 30, i32 31, i32 31, i32 30, i32 31, i32 30, i32 31], align 16
@_ZSt3cin = external global %"class.std::basic_istream", align 8
@_ZSt4cout = external global %"class.std::basic_ostream", align 8
@llvm.global_ctors = appending global [1 x { i32, void ()*, i8* }] [{ i32, void ()*, i8* } { i32 65535, void ()* @_GLOBAL__sub_I_2537.cpp, i8* null }]

declare void @_ZNSt8ios_base4InitC1Ev(%"class.std::ios_base::Init"* nonnull align 1 dereferenceable(1)) unnamed_addr #0

; Function Attrs: nounwind
declare void @_ZNSt8ios_base4InitD1Ev(%"class.std::ios_base::Init"* nonnull align 1 dereferenceable(1)) unnamed_addr #1

; Function Attrs: nofree nounwind
declare i32 @__cxa_atexit(void (i8*)*, i8*, i8*) local_unnamed_addr #2

; Function Attrs: mustprogress norecurse sspstrong uwtable
define dso_local i32 @main() local_unnamed_addr #3 {
  %1 = alloca i32, align 4
  %2 = bitcast i32* %1 to i8*
  call void @llvm.lifetime.start.p0i8(i64 4, i8* nonnull %2) #7
  %3 = call nonnull align 8 dereferenceable(16) %"class.std::basic_istream"* @_ZNSirsERi(%"class.std::basic_istream"* nonnull align 8 dereferenceable(16) @_ZSt3cin, i32* nonnull align 4 dereferenceable(4) %1)
  br label %4

4:                                                ; preds = %0, %90
  %5 = phi i64 [ 0, %0 ], [ %93, %90 ]
  %6 = phi i64 [ 1, %0 ], [ %91, %90 ]
  %7 = icmp ugt i64 %6, 1
  br i1 %7, label %8, label %51

8:                                                ; preds = %4
  %9 = add i64 %5, -1
  %10 = and i64 %5, 3
  %11 = icmp ult i64 %9, 3
  br i1 %11, label %36, label %12

12:                                               ; preds = %8
  %13 = and i64 %5, -4
  br label %14

14:                                               ; preds = %14, %12
  %15 = phi i64 [ 1, %12 ], [ %33, %14 ]
  %16 = phi i32 [ 0, %12 ], [ %32, %14 ]
  %17 = phi i64 [ %13, %12 ], [ %34, %14 ]
  %18 = getelementptr inbounds [13 x i32], [13 x i32]* @__const.main.a, i64 0, i64 %15
  %19 = load i32, i32* %18, align 4, !tbaa !5
  %20 = add nsw i32 %19, %16
  %21 = add nuw nsw i64 %15, 1
  %22 = getelementptr inbounds [13 x i32], [13 x i32]* @__const.main.a, i64 0, i64 %21
  %23 = load i32, i32* %22, align 4, !tbaa !5
  %24 = add nsw i32 %23, %20
  %25 = add nuw nsw i64 %15, 2
  %26 = getelementptr inbounds [13 x i32], [13 x i32]* @__const.main.a, i64 0, i64 %25
  %27 = load i32, i32* %26, align 4, !tbaa !5
  %28 = add nsw i32 %27, %24
  %29 = add nuw nsw i64 %15, 3
  %30 = getelementptr inbounds [13 x i32], [13 x i32]* @__const.main.a, i64 0, i64 %29
  %31 = load i32, i32* %30, align 4, !tbaa !5
  %32 = add nsw i32 %31, %28
  %33 = add nuw nsw i64 %15, 4
  %34 = add i64 %17, -4
  %35 = icmp eq i64 %34, 0
  br i1 %35, label %36, label %14, !llvm.loop !9

36:                                               ; preds = %14, %8
  %37 = phi i32 [ undef, %8 ], [ %32, %14 ]
  %38 = phi i64 [ 1, %8 ], [ %33, %14 ]
  %39 = phi i32 [ 0, %8 ], [ %32, %14 ]
  %40 = icmp eq i64 %10, 0
  br i1 %40, label %51, label %41

41:                                               ; preds = %36, %41
  %42 = phi i64 [ %48, %41 ], [ %38, %36 ]
  %43 = phi i32 [ %47, %41 ], [ %39, %36 ]
  %44 = phi i64 [ %49, %41 ], [ %10, %36 ]
  %45 = getelementptr inbounds [13 x i32], [13 x i32]* @__const.main.a, i64 0, i64 %42
  %46 = load i32, i32* %45, align 4, !tbaa !5
  %47 = add nsw i32 %46, %43
  %48 = add nuw nsw i64 %42, 1
  %49 = add i64 %44, -1
  %50 = icmp eq i64 %49, 0
  br i1 %50, label %51, label %41, !llvm.loop !11

51:                                               ; preds = %36, %41, %4
  %52 = phi i32 [ 0, %4 ], [ %37, %36 ], [ %47, %41 ]
  %53 = add nsw i32 %52, 12
  %54 = load i32, i32* %1, align 4, !tbaa !5
  %55 = add nsw i32 %53, %54
  %56 = srem i32 %55, 7
  %57 = icmp eq i32 %56, 5
  br i1 %57, label %58, label %90

58:                                               ; preds = %51
  %59 = trunc i64 %6 to i32
  %60 = call nonnull align 8 dereferenceable(8) %"class.std::basic_ostream"* @_ZNSolsEi(%"class.std::basic_ostream"* nonnull align 8 dereferenceable(8) @_ZSt4cout, i32 %59)
  %61 = bitcast %"class.std::basic_ostream"* %60 to i8**
  %62 = load i8*, i8** %61, align 8, !tbaa !13
  %63 = getelementptr i8, i8* %62, i64 -24
  %64 = bitcast i8* %63 to i64*
  %65 = load i64, i64* %64, align 8
  %66 = bitcast %"class.std::basic_ostream"* %60 to i8*
  %67 = add nsw i64 %65, 240
  %68 = getelementptr inbounds i8, i8* %66, i64 %67
  %69 = bitcast i8* %68 to %"class.std::ctype"**
  %70 = load %"class.std::ctype"*, %"class.std::ctype"** %69, align 8, !tbaa !15
  %71 = icmp eq %"class.std::ctype"* %70, null
  br i1 %71, label %72, label %73

72:                                               ; preds = %58
  call void @_ZSt16__throw_bad_castv() #8
  unreachable

73:                                               ; preds = %58
  %74 = getelementptr inbounds %"class.std::ctype", %"class.std::ctype"* %70, i64 0, i32 8
  %75 = load i8, i8* %74, align 8, !tbaa !19
  %76 = icmp eq i8 %75, 0
  br i1 %76, label %80, label %77

77:                                               ; preds = %73
  %78 = getelementptr inbounds %"class.std::ctype", %"class.std::ctype"* %70, i64 0, i32 9, i64 10
  %79 = load i8, i8* %78, align 1, !tbaa !21
  br label %86

80:                                               ; preds = %73
  call void @_ZNKSt5ctypeIcE13_M_widen_initEv(%"class.std::ctype"* nonnull align 8 dereferenceable(570) %70)
  %81 = bitcast %"class.std::ctype"* %70 to i8 (%"class.std::ctype"*, i8)***
  %82 = load i8 (%"class.std::ctype"*, i8)**, i8 (%"class.std::ctype"*, i8)*** %81, align 8, !tbaa !13
  %83 = getelementptr inbounds i8 (%"class.std::ctype"*, i8)*, i8 (%"class.std::ctype"*, i8)** %82, i64 6
  %84 = load i8 (%"class.std::ctype"*, i8)*, i8 (%"class.std::ctype"*, i8)** %83, align 8
  %85 = call signext i8 %84(%"class.std::ctype"* nonnull align 8 dereferenceable(570) %70, i8 signext 10)
  br label %86

86:                                               ; preds = %77, %80
  %87 = phi i8 [ %79, %77 ], [ %85, %80 ]
  %88 = call nonnull align 8 dereferenceable(8) %"class.std::basic_ostream"* @_ZNSo3putEc(%"class.std::basic_ostream"* nonnull align 8 dereferenceable(8) %60, i8 signext %87)
  %89 = call nonnull align 8 dereferenceable(8) %"class.std::basic_ostream"* @_ZNSo5flushEv(%"class.std::basic_ostream"* nonnull align 8 dereferenceable(8) %88)
  br label %90

90:                                               ; preds = %51, %86
  %91 = add nuw nsw i64 %6, 1
  %92 = icmp eq i64 %91, 13
  %93 = add i64 %5, 1
  br i1 %92, label %94, label %4, !llvm.loop !22

94:                                               ; preds = %90
  call void @llvm.lifetime.end.p0i8(i64 4, i8* nonnull %2) #7
  ret i32 0
}

; Function Attrs: argmemonly mustprogress nofree nosync nounwind willreturn
declare void @llvm.lifetime.start.p0i8(i64 immarg, i8* nocapture) #4

declare nonnull align 8 dereferenceable(16) %"class.std::basic_istream"* @_ZNSirsERi(%"class.std::basic_istream"* nonnull align 8 dereferenceable(16), i32* nonnull align 4 dereferenceable(4)) local_unnamed_addr #0

declare nonnull align 8 dereferenceable(8) %"class.std::basic_ostream"* @_ZNSolsEi(%"class.std::basic_ostream"* nonnull align 8 dereferenceable(8), i32) local_unnamed_addr #0

; Function Attrs: argmemonly mustprogress nofree nosync nounwind willreturn
declare void @llvm.lifetime.end.p0i8(i64 immarg, i8* nocapture) #4

declare nonnull align 8 dereferenceable(8) %"class.std::basic_ostream"* @_ZNSo3putEc(%"class.std::basic_ostream"* nonnull align 8 dereferenceable(8), i8 signext) local_unnamed_addr #0

declare nonnull align 8 dereferenceable(8) %"class.std::basic_ostream"* @_ZNSo5flushEv(%"class.std::basic_ostream"* nonnull align 8 dereferenceable(8)) local_unnamed_addr #0

; Function Attrs: noreturn
declare void @_ZSt16__throw_bad_castv() local_unnamed_addr #5

declare void @_ZNKSt5ctypeIcE13_M_widen_initEv(%"class.std::ctype"* nonnull align 8 dereferenceable(570)) local_unnamed_addr #0

; Function Attrs: sspstrong uwtable
define internal void @_GLOBAL__sub_I_2537.cpp() #6 section ".text.startup" {
  tail call void @_ZNSt8ios_base4InitC1Ev(%"class.std::ios_base::Init"* nonnull align 1 dereferenceable(1) @_ZStL8__ioinit)
  %1 = tail call i32 @__cxa_atexit(void (i8*)* bitcast (void (%"class.std::ios_base::Init"*)* @_ZNSt8ios_base4InitD1Ev to void (i8*)*), i8* getelementptr inbounds (%"class.std::ios_base::Init", %"class.std::ios_base::Init"* @_ZStL8__ioinit, i64 0, i32 0), i8* nonnull @__dso_handle) #7
  ret void
}


!llvm.module.flags = !{!0, !1, !2, !3}
!llvm.ident = !{!4}

!0 = !{i32 1, !"wchar_size", i32 4}
!1 = !{i32 7, !"PIC Level", i32 2}
!2 = !{i32 7, !"PIE Level", i32 2}
!3 = !{i32 7, !"uwtable", i32 1}
!4 = !{!"clang version 13.0.0"}
!5 = !{!6, !6, i64 0}
!6 = !{!"int", !7, i64 0}
!7 = !{!"omnipotent char", !8, i64 0}
!8 = !{!"Simple C++ TBAA"}
!9 = distinct !{!9, !10}
!10 = !{!"llvm.loop.mustprogress"}
!11 = distinct !{!11, !12}
!12 = !{!"llvm.loop.unroll.disable"}
!13 = !{!14, !14, i64 0}
!14 = !{!"vtable pointer", !8, i64 0}
!15 = !{!16, !17, i64 240}
!16 = !{!"_ZTSSt9basic_iosIcSt11char_traitsIcEE", !17, i64 216, !7, i64 224, !18, i64 225, !17, i64 232, !17, i64 240, !17, i64 248, !17, i64 256}
!17 = !{!"any pointer", !7, i64 0}
!18 = !{!"bool", !7, i64 0}
!19 = !{!20, !7, i64 56}
!20 = !{!"_ZTSSt5ctypeIcE", !17, i64 16, !18, i64 24, !17, i64 32, !17, i64 40, !17, i64 48, !7, i64 56, !7, i64 57, !7, i64 313, !7, i64 569}
!21 = !{!7, !7, i64 0}
!22 = distinct !{!22, !10}
